target datalayout = "e-m:e-p270:32:32-p271:32:32-p272:64:64-i64:64-i128:128-f80:128-n8:16:32:64-S128"
target triple = "x86_64-pc-linux-gnu"

%struct.DdManager = type { %struct.DdNode, ptr, ptr, ptr, ptr, ptr, ptr, ptr, i32, i32, double, double, double, i32, i32, i32, i32, i32, i32, ptr, ptr, %struct.DdSubtable, i32, i32, i32, i32, i32, i32, i32, double, i32, i32, i32, ptr, i64, double, i32, ptr, ptr, ptr, ptr, ptr, ptr, ptr, i32, ptr, ptr, ptr, ptr, ptr, ptr, i32, i32, i32, double, i32, i32, i32, i32, double, double, i32, i32, i32, i32, i32, i32, i32, i32, i32, ptr, ptr, i32, i32, i32, i32, i32, i32, ptr, ptr, ptr, ptr, ptr, ptr, ptr, ptr, i32, i64, i64, i64, i32, i64, i64, double, double, double, double, double, double, i32, ptr, ptr, i64 }
%struct.DdNode = type { i32, i32, ptr, %union.anon, i64 }
%union.anon = type { %struct.DdChildren }
%struct.DdChildren = type { ptr, ptr }
%struct.DdSubtable = type { ptr, i32, i32, i32, i32, i32, i32, i32, i32, i32, i32, i32 }

; Function Attrs: nounwind uwtable
define ptr @cuddZddUnion(ptr noundef %0, ptr noundef %1, ptr noundef %2) #0 {
  %4 = alloca ptr, align 8
  %5 = alloca ptr, align 8
  %6 = alloca ptr, align 8
  %7 = alloca ptr, align 8
  %8 = alloca i32, align 4
  %9 = alloca i32, align 4
  %10 = alloca ptr, align 8
  %11 = alloca ptr, align 8
  %12 = alloca ptr, align 8
  %13 = alloca ptr, align 8
  %14 = alloca ptr, align 8
  %15 = alloca i32, align 4
  store ptr %0, ptr %5, align 8, !tbaa !3
  store ptr %1, ptr %6, align 8, !tbaa !8
  store ptr %2, ptr %7, align 8, !tbaa !8
  call void @llvm.lifetime.start.p0(i64 4, ptr %8) #3
  call void @llvm.lifetime.start.p0(i64 4, ptr %9) #3
  call void @llvm.lifetime.start.p0(i64 8, ptr %10) #3
  %16 = load ptr, ptr %5, align 8, !tbaa !3
  %17 = getelementptr inbounds nuw %struct.DdManager, ptr %16, i32 0, i32 2
  %18 = load ptr, ptr %17, align 8, !tbaa !29
  store ptr %18, ptr %10, align 8, !tbaa !8
  call void @llvm.lifetime.start.p0(i64 8, ptr %11) #3
  call void @llvm.lifetime.start.p0(i64 8, ptr %12) #3
  call void @llvm.lifetime.start.p0(i64 8, ptr %13) #3
  call void @llvm.lifetime.start.p0(i64 8, ptr %14) #3
  %19 = load ptr, ptr %5, align 8, !tbaa !3
  store ptr %19, ptr %14, align 8, !tbaa !3
  %20 = load ptr, ptr %6, align 8, !tbaa !8
  %21 = load ptr, ptr %10, align 8, !tbaa !8
  %22 = icmp eq ptr %20, %21
  br i1 %22, label %23, label %25

23:                                               ; preds = %3
  %24 = load ptr, ptr %7, align 8, !tbaa !8
  store ptr %24, ptr %4, align 8
  store i32 1, ptr %15, align 4
  br label %257

25:                                               ; preds = %3
  %26 = load ptr, ptr %7, align 8, !tbaa !8
  %27 = load ptr, ptr %10, align 8, !tbaa !8
  %28 = icmp eq ptr %26, %27
  br i1 %28, label %29, label %31

29:                                               ; preds = %25
  %30 = load ptr, ptr %6, align 8, !tbaa !8
  store ptr %30, ptr %4, align 8
  store i32 1, ptr %15, align 4
  br label %257

31:                                               ; preds = %25
  %32 = load ptr, ptr %6, align 8, !tbaa !8
  %33 = load ptr, ptr %7, align 8, !tbaa !8
  %34 = icmp eq ptr %32, %33
  br i1 %34, label %35, label %37

35:                                               ; preds = %31
  %36 = load ptr, ptr %6, align 8, !tbaa !8
  store ptr %36, ptr %4, align 8
  store i32 1, ptr %15, align 4
  br label %257

37:                                               ; preds = %31
  %38 = load ptr, ptr %14, align 8, !tbaa !3
  %39 = load ptr, ptr %6, align 8, !tbaa !8
  %40 = load ptr, ptr %7, align 8, !tbaa !8
  %41 = call ptr @cuddCacheLookup2Zdd(ptr noundef %38, ptr noundef @cuddZddUnion, ptr noundef %39, ptr noundef %40)
  store ptr %41, ptr %13, align 8, !tbaa !8
  %42 = load ptr, ptr %13, align 8, !tbaa !8
  %43 = icmp ne ptr %42, null
  br i1 %43, label %44, label %46

44:                                               ; preds = %37
  %45 = load ptr, ptr %13, align 8, !tbaa !8
  store ptr %45, ptr %4, align 8
  store i32 1, ptr %15, align 4
  br label %257

46:                                               ; preds = %37
  %47 = load ptr, ptr %6, align 8, !tbaa !8
  %48 = getelementptr inbounds nuw %struct.DdNode, ptr %47, i32 0, i32 0
  %49 = load i32, ptr %48, align 8, !tbaa !30
  %50 = icmp eq i32 %49, 2147483647
  br i1 %50, label %51, label %55

51:                                               ; preds = %46
  %52 = load ptr, ptr %6, align 8, !tbaa !8
  %53 = getelementptr inbounds nuw %struct.DdNode, ptr %52, i32 0, i32 0
  %54 = load i32, ptr %53, align 8, !tbaa !30
  store i32 %54, ptr %8, align 4, !tbaa !32
  br label %65

55:                                               ; preds = %46
  %56 = load ptr, ptr %5, align 8, !tbaa !3
  %57 = getelementptr inbounds nuw %struct.DdManager, ptr %56, i32 0, i32 38
  %58 = load ptr, ptr %57, align 8, !tbaa !31
  %59 = load ptr, ptr %6, align 8, !tbaa !8
  %60 = getelementptr inbounds nuw %struct.DdNode, ptr %59, i32 0, i32 0
  %61 = load i32, ptr %60, align 8, !tbaa !30
  %62 = zext i32 %61 to i64
  %63 = getelementptr inbounds nuw i32, ptr %58, i64 %62
  %64 = load i32, ptr %63, align 4, !tbaa !32
  store i32 %64, ptr %8, align 4, !tbaa !32
  br label %65

65:                                               ; preds = %55, %51
  %66 = load ptr, ptr %7, align 8, !tbaa !8
  %67 = getelementptr inbounds nuw %struct.DdNode, ptr %66, i32 0, i32 0
  %68 = load i32, ptr %67, align 8, !tbaa !30
  %69 = icmp eq i32 %68, 2147483647
  br i1 %69, label %70, label %74

70:                                               ; preds = %65
  %71 = load ptr, ptr %7, align 8, !tbaa !8
  %72 = getelementptr inbounds nuw %struct.DdNode, ptr %71, i32 0, i32 0
  %73 = load i32, ptr %72, align 8, !tbaa !30
  store i32 %73, ptr %9, align 4, !tbaa !32
  br label %84

74:                                               ; preds = %65
  %75 = load ptr, ptr %5, align 8, !tbaa !3
  %76 = getelementptr inbounds nuw %struct.DdManager, ptr %75, i32 0, i32 38
  %77 = load ptr, ptr %76, align 8, !tbaa !31
  %78 = load ptr, ptr %7, align 8, !tbaa !8
  %79 = getelementptr inbounds nuw %struct.DdNode, ptr %78, i32 0, i32 0
  %80 = load i32, ptr %79, align 8, !tbaa !30
  %81 = zext i32 %80 to i64
  %82 = getelementptr inbounds nuw i32, ptr %77, i64 %81
  %83 = load i32, ptr %82, align 4, !tbaa !32
  store i32 %83, ptr %9, align 4, !tbaa !32
  br label %84

84:                                               ; preds = %74, %70
  %85 = load i32, ptr %8, align 4, !tbaa !32
  %86 = load i32, ptr %9, align 4, !tbaa !32
  %87 = icmp slt i32 %85, %86
  br i1 %87, label %88, label %130

88:                                               ; preds = %84
  %89 = load ptr, ptr %5, align 8, !tbaa !3
  %90 = load ptr, ptr %6, align 8, !tbaa !8
  %91 = getelementptr inbounds nuw %struct.DdNode, ptr %90, i32 0, i32 3
  %92 = getelementptr inbounds nuw %struct.DdChildren, ptr %91, i32 0, i32 1
  %93 = load ptr, ptr %92, align 8, !tbaa !35
  %94 = load ptr, ptr %7, align 8, !tbaa !8
  %95 = call ptr @cuddZddUnion(ptr noundef %89, ptr noundef %93, ptr noundef %94)
  store ptr %95, ptr %12, align 8, !tbaa !8
  %96 = load ptr, ptr %12, align 8, !tbaa !8
  %97 = icmp eq ptr %96, null
  br i1 %97, label %98, label %99

98:                                               ; preds = %88
  store ptr null, ptr %4, align 8
  store i32 1, ptr %15, align 4
  br label %257

99:                                               ; preds = %88
  %100 = load ptr, ptr %12, align 8, !tbaa !8
  %101 = ptrtoint ptr %100 to i64
  %102 = and i64 %101, -2
  %103 = inttoptr i64 %102 to ptr
  %104 = getelementptr inbounds nuw %struct.DdNode, ptr %103, i32 0, i32 1
  %105 = load i32, ptr %104, align 4, !tbaa !36
  %106 = add i32 %105, 1
  store i32 %106, ptr %104, align 4, !tbaa !36
  %107 = load ptr, ptr %5, align 8, !tbaa !3
  %108 = load ptr, ptr %6, align 8, !tbaa !8
  %109 = getelementptr inbounds nuw %struct.DdNode, ptr %108, i32 0, i32 0
  %110 = load i32, ptr %109, align 8, !tbaa !30
  %111 = load ptr, ptr %6, align 8, !tbaa !8
  %112 = getelementptr inbounds nuw %struct.DdNode, ptr %111, i32 0, i32 3
  %113 = getelementptr inbounds nuw %struct.DdChildren, ptr %112, i32 0, i32 0
  %114 = load ptr, ptr %113, align 8, !tbaa !35
  %115 = load ptr, ptr %12, align 8, !tbaa !8
  %116 = call ptr @cuddZddGetNode(ptr noundef %107, i32 noundef %110, ptr noundef %114, ptr noundef %115)
  store ptr %116, ptr %13, align 8, !tbaa !8
  %117 = load ptr, ptr %13, align 8, !tbaa !8
  %118 = icmp eq ptr %117, null
  br i1 %118, label %119, label %122

119:                                              ; preds = %99
  %120 = load ptr, ptr %14, align 8, !tbaa !3
  %121 = load ptr, ptr %12, align 8, !tbaa !8
  call void @Cudd_RecursiveDerefZdd(ptr noundef %120, ptr noundef %121)
  store ptr null, ptr %4, align 8
  store i32 1, ptr %15, align 4
  br label %257

122:                                              ; preds = %99
  %123 = load ptr, ptr %12, align 8, !tbaa !8
  %124 = ptrtoint ptr %123 to i64
  %125 = and i64 %124, -2
  %126 = inttoptr i64 %125 to ptr
  %127 = getelementptr inbounds nuw %struct.DdNode, ptr %126, i32 0, i32 1
  %128 = load i32, ptr %127, align 4, !tbaa !36
  %129 = add i32 %128, -1
  store i32 %129, ptr %127, align 4, !tbaa !36
  br label %251

130:                                              ; preds = %84
  %131 = load i32, ptr %8, align 4, !tbaa !32
  %132 = load i32, ptr %9, align 4, !tbaa !32
  %133 = icmp sgt i32 %131, %132
  br i1 %133, label %134, label %176

134:                                              ; preds = %130
  %135 = load ptr, ptr %5, align 8, !tbaa !3
  %136 = load ptr, ptr %6, align 8, !tbaa !8
  %137 = load ptr, ptr %7, align 8, !tbaa !8
  %138 = getelementptr inbounds nuw %struct.DdNode, ptr %137, i32 0, i32 3
  %139 = getelementptr inbounds nuw %struct.DdChildren, ptr %138, i32 0, i32 1
  %140 = load ptr, ptr %139, align 8, !tbaa !35
  %141 = call ptr @cuddZddUnion(ptr noundef %135, ptr noundef %136, ptr noundef %140)
  store ptr %141, ptr %12, align 8, !tbaa !8
  %142 = load ptr, ptr %12, align 8, !tbaa !8
  %143 = icmp eq ptr %142, null
  br i1 %143, label %144, label %145

144:                                              ; preds = %134
  store ptr null, ptr %4, align 8
  store i32 1, ptr %15, align 4
  br label %257

145:                                              ; preds = %134
  %146 = load ptr, ptr %12, align 8, !tbaa !8
  %147 = ptrtoint ptr %146 to i64
  %148 = and i64 %147, -2
  %149 = inttoptr i64 %148 to ptr
  %150 = getelementptr inbounds nuw %struct.DdNode, ptr %149, i32 0, i32 1
  %151 = load i32, ptr %150, align 4, !tbaa !36
  %152 = add i32 %151, 1
  store i32 %152, ptr %150, align 4, !tbaa !36
  %153 = load ptr, ptr %5, align 8, !tbaa !3
  %154 = load ptr, ptr %7, align 8, !tbaa !8
  %155 = getelementptr inbounds nuw %struct.DdNode, ptr %154, i32 0, i32 0
  %156 = load i32, ptr %155, align 8, !tbaa !30
  %157 = load ptr, ptr %7, align 8, !tbaa !8
  %158 = getelementptr inbounds nuw %struct.DdNode, ptr %157, i32 0, i32 3
  %159 = getelementptr inbounds nuw %struct.DdChildren, ptr %158, i32 0, i32 0
  %160 = load ptr, ptr %159, align 8, !tbaa !35
  %161 = load ptr, ptr %12, align 8, !tbaa !8
  %162 = call ptr @cuddZddGetNode(ptr noundef %153, i32 noundef %156, ptr noundef %160, ptr noundef %161)
  store ptr %162, ptr %13, align 8, !tbaa !8
  %163 = load ptr, ptr %13, align 8, !tbaa !8
  %164 = icmp eq ptr %163, null
  br i1 %164, label %165, label %168

165:                                              ; preds = %145
  %166 = load ptr, ptr %14, align 8, !tbaa !3
  %167 = load ptr, ptr %12, align 8, !tbaa !8
  call void @Cudd_RecursiveDerefZdd(ptr noundef %166, ptr noundef %167)
  store ptr null, ptr %4, align 8
  store i32 1, ptr %15, align 4
  br label %257

168:                                              ; preds = %145
  %169 = load ptr, ptr %12, align 8, !tbaa !8
  %170 = ptrtoint ptr %169 to i64
  %171 = and i64 %170, -2
  %172 = inttoptr i64 %171 to ptr
  %173 = getelementptr inbounds nuw %struct.DdNode, ptr %172, i32 0, i32 1
  %174 = load i32, ptr %173, align 4, !tbaa !36
  %175 = add i32 %174, -1
  store i32 %175, ptr %173, align 4, !tbaa !36
  br label %250

176:                                              ; preds = %130
  %177 = load ptr, ptr %5, align 8, !tbaa !3
  %178 = load ptr, ptr %6, align 8, !tbaa !8
  %179 = getelementptr inbounds nuw %struct.DdNode, ptr %178, i32 0, i32 3
  %180 = getelementptr inbounds nuw %struct.DdChildren, ptr %179, i32 0, i32 0
  %181 = load ptr, ptr %180, align 8, !tbaa !35
  %182 = load ptr, ptr %7, align 8, !tbaa !8
  %183 = getelementptr inbounds nuw %struct.DdNode, ptr %182, i32 0, i32 3
  %184 = getelementptr inbounds nuw %struct.DdChildren, ptr %183, i32 0, i32 0
  %185 = load ptr, ptr %184, align 8, !tbaa !35
  %186 = call ptr @cuddZddUnion(ptr noundef %177, ptr noundef %181, ptr noundef %185)
  store ptr %186, ptr %11, align 8, !tbaa !8
  %187 = load ptr, ptr %11, align 8, !tbaa !8
  %188 = icmp eq ptr %187, null
  br i1 %188, label %189, label %190

189:                                              ; preds = %176
  store ptr null, ptr %4, align 8
  store i32 1, ptr %15, align 4
  br label %257

190:                                              ; preds = %176
  %191 = load ptr, ptr %11, align 8, !tbaa !8
  %192 = ptrtoint ptr %191 to i64
  %193 = and i64 %192, -2
  %194 = inttoptr i64 %193 to ptr
  %195 = getelementptr inbounds nuw %struct.DdNode, ptr %194, i32 0, i32 1
  %196 = load i32, ptr %195, align 4, !tbaa !36
  %197 = add i32 %196, 1
  store i32 %197, ptr %195, align 4, !tbaa !36
  %198 = load ptr, ptr %5, align 8, !tbaa !3
  %199 = load ptr, ptr %6, align 8, !tbaa !8
  %200 = getelementptr inbounds nuw %struct.DdNode, ptr %199, i32 0, i32 3
  %201 = getelementptr inbounds nuw %struct.DdChildren, ptr %200, i32 0, i32 1
  %202 = load ptr, ptr %201, align 8, !tbaa !35
  %203 = load ptr, ptr %7, align 8, !tbaa !8
  %204 = getelementptr inbounds nuw %struct.DdNode, ptr %203, i32 0, i32 3
  %205 = getelementptr inbounds nuw %struct.DdChildren, ptr %204, i32 0, i32 1
  %206 = load ptr, ptr %205, align 8, !tbaa !35
  %207 = call ptr @cuddZddUnion(ptr noundef %198, ptr noundef %202, ptr noundef %206)
  store ptr %207, ptr %12, align 8, !tbaa !8
  %208 = load ptr, ptr %12, align 8, !tbaa !8
  %209 = icmp eq ptr %208, null
  br i1 %209, label %210, label %213

210:                                              ; preds = %190
  %211 = load ptr, ptr %14, align 8, !tbaa !3
  %212 = load ptr, ptr %11, align 8, !tbaa !8
  call void @Cudd_RecursiveDerefZdd(ptr noundef %211, ptr noundef %212)
  store ptr null, ptr %4, align 8
  store i32 1, ptr %15, align 4
  br label %257

213:                                              ; preds = %190
  %214 = load ptr, ptr %12, align 8, !tbaa !8
  %215 = ptrtoint ptr %214 to i64
  %216 = and i64 %215, -2
  %217 = inttoptr i64 %216 to ptr
  %218 = getelementptr inbounds nuw %struct.DdNode, ptr %217, i32 0, i32 1
  %219 = load i32, ptr %218, align 4, !tbaa !36
  %220 = add i32 %219, 1
  store i32 %220, ptr %218, align 4, !tbaa !36
  %221 = load ptr, ptr %5, align 8, !tbaa !3
  %222 = load ptr, ptr %6, align 8, !tbaa !8
  %223 = getelementptr inbounds nuw %struct.DdNode, ptr %222, i32 0, i32 0
  %224 = load i32, ptr %223, align 8, !tbaa !30
  %225 = load ptr, ptr %11, align 8, !tbaa !8
  %226 = load ptr, ptr %12, align 8, !tbaa !8
  %227 = call ptr @cuddZddGetNode(ptr noundef %221, i32 noundef %224, ptr noundef %225, ptr noundef %226)
  store ptr %227, ptr %13, align 8, !tbaa !8
  %228 = load ptr, ptr %13, align 8, !tbaa !8
  %229 = icmp eq ptr %228, null
  br i1 %229, label %230, label %235

230:                                              ; preds = %213
  %231 = load ptr, ptr %14, align 8, !tbaa !3
  %232 = load ptr, ptr %11, align 8, !tbaa !8
  call void @Cudd_RecursiveDerefZdd(ptr noundef %231, ptr noundef %232)
  %233 = load ptr, ptr %14, align 8, !tbaa !3
  %234 = load ptr, ptr %12, align 8, !tbaa !8
  call void @Cudd_RecursiveDerefZdd(ptr noundef %233, ptr noundef %234)
  store ptr null, ptr %4, align 8
  store i32 1, ptr %15, align 4
  br label %257

235:                                              ; preds = %213
  %236 = load ptr, ptr %11, align 8, !tbaa !8
  %237 = ptrtoint ptr %236 to i64
  %238 = and i64 %237, -2
  %239 = inttoptr i64 %238 to ptr
  %240 = getelementptr inbounds nuw %struct.DdNode, ptr %239, i32 0, i32 1
  %241 = load i32, ptr %240, align 4, !tbaa !36
  %242 = add i32 %241, -1
  store i32 %242, ptr %240, align 4, !tbaa !36
  %243 = load ptr, ptr %12, align 8, !tbaa !8
  %244 = ptrtoint ptr %243 to i64
  %245 = and i64 %244, -2
  %246 = inttoptr i64 %245 to ptr
  %247 = getelementptr inbounds nuw %struct.DdNode, ptr %246, i32 0, i32 1
  %248 = load i32, ptr %247, align 4, !tbaa !36
  %249 = add i32 %248, -1
  store i32 %249, ptr %247, align 4, !tbaa !36
  br label %250

250:                                              ; preds = %235, %168
  br label %251

251:                                              ; preds = %250, %122
  %252 = load ptr, ptr %14, align 8, !tbaa !3
  %253 = load ptr, ptr %6, align 8, !tbaa !8
  %254 = load ptr, ptr %7, align 8, !tbaa !8
  %255 = load ptr, ptr %13, align 8, !tbaa !8
  call void @cuddCacheInsert2(ptr noundef %252, ptr noundef @cuddZddUnion, ptr noundef %253, ptr noundef %254, ptr noundef %255)
  %256 = load ptr, ptr %13, align 8, !tbaa !8
  store ptr %256, ptr %4, align 8
  store i32 1, ptr %15, align 4
  br label %257

257:                                              ; preds = %251, %230, %210, %189, %165, %144, %119, %98, %44, %35, %29, %23
  call void @llvm.lifetime.end.p0(i64 8, ptr %14) #3
  call void @llvm.lifetime.end.p0(i64 8, ptr %13) #3
  call void @llvm.lifetime.end.p0(i64 8, ptr %12) #3
  call void @llvm.lifetime.end.p0(i64 8, ptr %11) #3
  call void @llvm.lifetime.end.p0(i64 8, ptr %10) #3
  call void @llvm.lifetime.end.p0(i64 4, ptr %9) #3
  call void @llvm.lifetime.end.p0(i64 4, ptr %8) #3
  %258 = load ptr, ptr %4, align 8
  ret ptr %258
}