; Function Attrs: nounwind uwtable
define ptr @cuddZddUnion(ptr noundef %0, ptr noundef %1, ptr noundef %2) #0 {
  %4 = getelementptr inbounds nuw i8, ptr %0, i64 48
  %5 = load ptr, ptr %4, align 8, !tbaa !26
  %6 = icmp eq ptr %1, %5
  br i1 %6, label %114, label %7

7:                                                ; preds = %3
  %8 = icmp eq ptr %2, %5
  %9 = icmp eq ptr %1, %2
  %or.cond = or i1 %9, %8
  br i1 %or.cond, label %114, label %10

10:                                               ; preds = %7
  %11 = tail call ptr @cuddCacheLookup2Zdd(ptr noundef nonnull %0, ptr noundef nonnull @cuddZddUnion, ptr noundef %1, ptr noundef %2) #3
  %.not = icmp eq ptr %11, null
  br i1 %.not, label %12, label %114

12:                                               ; preds = %10
  %13 = load i32, ptr %1, align 8, !tbaa !27
  %14 = icmp eq i32 %13, 2147483647
  br i1 %14, label %21, label %15

15:                                               ; preds = %12
  %16 = getelementptr inbounds nuw i8, ptr %0, i64 320
  %17 = load ptr, ptr %16, align 8, !tbaa !28
  %18 = zext i32 %13 to i64
  %19 = getelementptr inbounds nuw i32, ptr %17, i64 %18
  %20 = load i32, ptr %19, align 4, !tbaa !29
  br label %21

21:                                               ; preds = %12, %15
  %.083 = phi i32 [ %20, %15 ], [ 2147483647, %12 ]
  %22 = load i32, ptr %2, align 8, !tbaa !27
  %23 = icmp eq i32 %22, 2147483647
  br i1 %23, label %30, label %24

24:                                               ; preds = %21
  %25 = getelementptr inbounds nuw i8, ptr %0, i64 320
  %26 = load ptr, ptr %25, align 8, !tbaa !28
  %27 = zext i32 %22 to i64
  %28 = getelementptr inbounds nuw i32, ptr %26, i64 %27
  %29 = load i32, ptr %28, align 4, !tbaa !29
  br label %30

30:                                               ; preds = %21, %24
  %.084 = phi i32 [ %29, %24 ], [ 2147483647, %21 ]
  %31 = icmp slt i32 %.083, %.084
  br i1 %31, label %32, label %53

32:                                               ; preds = %30
  %33 = getelementptr inbounds nuw i8, ptr %1, i64 24
  %34 = load ptr, ptr %33, align 8, !tbaa !32
  %35 = tail call ptr @cuddZddUnion(ptr noundef nonnull %0, ptr noundef %34, ptr noundef nonnull %2)
  %36 = icmp eq ptr %35, null
  br i1 %36, label %114, label %37

37:                                               ; preds = %32
  %38 = getelementptr inbounds nuw i8, ptr %1, i64 16
  %39 = ptrtoint ptr %35 to i64
  %40 = and i64 %39, -2
  %41 = inttoptr i64 %40 to ptr
  %42 = getelementptr inbounds nuw i8, ptr %41, i64 4
  %43 = load i32, ptr %42, align 4, !tbaa !33
  %44 = add i32 %43, 1
  store i32 %44, ptr %42, align 4, !tbaa !33
  %45 = load i32, ptr %1, align 8, !tbaa !27
  %46 = load ptr, ptr %38, align 8, !tbaa !32
  %47 = tail call ptr @cuddZddGetNode(ptr noundef nonnull %0, i32 noundef %45, ptr noundef %46, ptr noundef nonnull %35) #3
  %48 = icmp eq ptr %47, null
  br i1 %48, label %49, label %50

49:                                               ; preds = %37
  tail call void @Cudd_RecursiveDerefZdd(ptr noundef nonnull %0, ptr noundef nonnull %35) #3
  br label %114

50:                                               ; preds = %37
  %51 = load i32, ptr %42, align 4, !tbaa !33
  %52 = add i32 %51, -1
  store i32 %52, ptr %42, align 4, !tbaa !33
  br label %113

53:                                               ; preds = %30
  %54 = icmp sgt i32 %.083, %.084
  br i1 %54, label %55, label %76

55:                                               ; preds = %53
  %56 = getelementptr inbounds nuw i8, ptr %2, i64 24
  %57 = load ptr, ptr %56, align 8, !tbaa !32
  %58 = tail call ptr @cuddZddUnion(ptr noundef nonnull %0, ptr noundef nonnull %1, ptr noundef %57)
  %59 = icmp eq ptr %58, null
  br i1 %59, label %114, label %60

60:                                               ; preds = %55
  %61 = getelementptr inbounds nuw i8, ptr %2, i64 16
  %62 = ptrtoint ptr %58 to i64
  %63 = and i64 %62, -2
  %64 = inttoptr i64 %63 to ptr
  %65 = getelementptr inbounds nuw i8, ptr %64, i64 4
  %66 = load i32, ptr %65, align 4, !tbaa !33
  %67 = add i32 %66, 1
  store i32 %67, ptr %65, align 4, !tbaa !33
  %68 = load i32, ptr %2, align 8, !tbaa !27
  %69 = load ptr, ptr %61, align 8, !tbaa !32
  %70 = tail call ptr @cuddZddGetNode(ptr noundef nonnull %0, i32 noundef %68, ptr noundef %69, ptr noundef nonnull %58) #3
  %71 = icmp eq ptr %70, null
  br i1 %71, label %72, label %73

72:                                               ; preds = %60
  tail call void @Cudd_RecursiveDerefZdd(ptr noundef nonnull %0, ptr noundef nonnull %58) #3
  br label %114

73:                                               ; preds = %60
  %74 = load i32, ptr %65, align 4, !tbaa !33
  %75 = add i32 %74, -1
  store i32 %75, ptr %65, align 4, !tbaa !33
  br label %113

76:                                               ; preds = %53
  %77 = getelementptr inbounds nuw i8, ptr %1, i64 16
  %78 = load ptr, ptr %77, align 8, !tbaa !32
  %79 = getelementptr inbounds nuw i8, ptr %2, i64 16
  %80 = load ptr, ptr %79, align 8, !tbaa !32
  %81 = tail call ptr @cuddZddUnion(ptr noundef nonnull %0, ptr noundef %78, ptr noundef %80)
  %82 = icmp eq ptr %81, null
  br i1 %82, label %114, label %83

83:                                               ; preds = %76
  %84 = ptrtoint ptr %81 to i64
  %85 = and i64 %84, -2
  %86 = inttoptr i64 %85 to ptr
  %87 = getelementptr inbounds nuw i8, ptr %86, i64 4
  %88 = load i32, ptr %87, align 4, !tbaa !33
  %89 = add i32 %88, 1
  store i32 %89, ptr %87, align 4, !tbaa !33
  %90 = getelementptr inbounds nuw i8, ptr %1, i64 24
  %91 = load ptr, ptr %90, align 8, !tbaa !32
  %92 = getelementptr inbounds nuw i8, ptr %2, i64 24
  %93 = load ptr, ptr %92, align 8, !tbaa !32
  %94 = tail call ptr @cuddZddUnion(ptr noundef nonnull %0, ptr noundef %91, ptr noundef %93)
  %95 = icmp eq ptr %94, null
  br i1 %95, label %96, label %97

96:                                               ; preds = %83
  tail call void @Cudd_RecursiveDerefZdd(ptr noundef nonnull %0, ptr noundef nonnull %81) #3
  br label %114

97:                                               ; preds = %83
  %98 = ptrtoint ptr %94 to i64
  %99 = and i64 %98, -2
  %100 = inttoptr i64 %99 to ptr
  %101 = getelementptr inbounds nuw i8, ptr %100, i64 4
  %102 = load i32, ptr %101, align 4, !tbaa !33
  %103 = add i32 %102, 1
  store i32 %103, ptr %101, align 4, !tbaa !33
  %104 = load i32, ptr %1, align 8, !tbaa !27
  %105 = tail call ptr @cuddZddGetNode(ptr noundef nonnull %0, i32 noundef %104, ptr noundef nonnull %81, ptr noundef nonnull %94) #3
  %106 = icmp eq ptr %105, null
  br i1 %106, label %107, label %108

107:                                              ; preds = %97
  tail call void @Cudd_RecursiveDerefZdd(ptr noundef nonnull %0, ptr noundef nonnull %81) #3
  tail call void @Cudd_RecursiveDerefZdd(ptr noundef nonnull %0, ptr noundef nonnull %94) #3
  br label %114

108:                                              ; preds = %97
  %109 = load i32, ptr %87, align 4, !tbaa !33
  %110 = add i32 %109, -1
  store i32 %110, ptr %87, align 4, !tbaa !33
  %111 = load i32, ptr %101, align 4, !tbaa !33
  %112 = add i32 %111, -1
  store i32 %112, ptr %101, align 4, !tbaa !33
  br label %113

113:                                              ; preds = %73, %108, %50
  %.082 = phi ptr [ %47, %50 ], [ %70, %73 ], [ %105, %108 ]
  tail call void @cuddCacheInsert2(ptr noundef nonnull %0, ptr noundef nonnull @cuddZddUnion, ptr noundef nonnull %1, ptr noundef nonnull %2, ptr noundef nonnull %.082) #3
  br label %114

114:                                              ; preds = %76, %55, %32, %10, %7, %3, %113, %107, %96, %72, %49
  %.0 = phi ptr [ null, %49 ], [ %.082, %113 ], [ null, %72 ], [ null, %96 ], [ null, %107 ], [ %2, %3 ], [ %1, %7 ], [ %11, %10 ], [ null, %32 ], [ null, %55 ], [ null, %76 ]
  ret ptr %.0
}